; Function Attrs: mustprogress nofree norecurse nosync nounwind willreturn memory(argmem: readwrite) uwtable
define dso_local range(i32 -9, 1) i32 @fdt_finish_reservemap(ptr noundef captures(none) %0) local_unnamed_addr #3 {
  %2 = load i8, ptr %0, align 1
  %3 = zext i8 %2 to i32
  %4 = shl nuw i32 %3, 24
  %5 = getelementptr inbounds nuw i8, ptr %0, i64 1
  %6 = load i8, ptr %5, align 1
  %7 = zext i8 %6 to i32
  %8 = shl nuw nsw i32 %7, 16
  %9 = or disjoint i32 %8, %4
  %10 = getelementptr inbounds nuw i8, ptr %0, i64 2
  %11 = load i8, ptr %10, align 1
  %12 = zext i8 %11 to i32
  %13 = shl nuw nsw i32 %12, 8
  %14 = or disjoint i32 %9, %13
  %15 = getelementptr inbounds nuw i8, ptr %0, i64 3
  %16 = load i8, ptr %15, align 1
  %17 = zext i8 %16 to i32
  %18 = or disjoint i32 %14, %17
  %.not.i.i.i = icmp eq i32 %18, 804389138
  br i1 %.not.i.i.i, label %19, label %fdt_sw_probe_memrsv_.exit.i

19:                                               ; preds = %1
  %20 = getelementptr inbounds nuw i8, ptr %0, i64 12
  %21 = load i8, ptr %20, align 1
  %22 = zext i8 %21 to i32
  %23 = shl nuw i32 %22, 24
  %24 = getelementptr inbounds nuw i8, ptr %0, i64 13
  %25 = load i8, ptr %24, align 1
  %26 = zext i8 %25 to i32
  %27 = shl nuw nsw i32 %26, 16
  %28 = or disjoint i32 %27, %23
  %29 = getelementptr inbounds nuw i8, ptr %0, i64 14
  %30 = load i8, ptr %29, align 1
  %31 = zext i8 %30 to i32
  %32 = shl nuw nsw i32 %31, 8
  %33 = or disjoint i32 %28, %32
  %34 = getelementptr inbounds nuw i8, ptr %0, i64 15
  %35 = load i8, ptr %34, align 1
  %36 = zext i8 %35 to i32
  %37 = or disjoint i32 %33, %36
  %.not5.i.i = icmp eq i32 %37, 0
  br i1 %.not5.i.i, label %fdt_sw_probe_memrsv_.exit.thread.i, label %fdt_add_reservemap_entry.exit.thread

fdt_sw_probe_memrsv_.exit.i:                      ; preds = %1
  %38 = icmp eq i32 %18, -804389139
  %.0.i.i.i = select i1 %38, i32 -7, i32 -9
  br label %fdt_add_reservemap_entry.exit.thread

fdt_sw_probe_memrsv_.exit.thread.i:               ; preds = %19
  %39 = getelementptr inbounds nuw i8, ptr %0, i64 8
  %40 = load i8, ptr %39, align 1
  %41 = zext i8 %40 to i32
  %42 = shl nuw i32 %41, 24
  %43 = getelementptr inbounds nuw i8, ptr %0, i64 9
  %44 = load i8, ptr %43, align 1
  %45 = zext i8 %44 to i32
  %46 = shl nuw nsw i32 %45, 16
  %47 = or disjoint i32 %46, %42
  %48 = getelementptr inbounds nuw i8, ptr %0, i64 10
  %49 = load i8, ptr %48, align 1
  %50 = zext i8 %49 to i32
  %51 = shl nuw nsw i32 %50, 8
  %52 = or disjoint i32 %47, %51
  %53 = getelementptr inbounds nuw i8, ptr %0, i64 11
  %54 = load i8, ptr %53, align 1
  %55 = zext i8 %54 to i32
  %56 = or disjoint i32 %52, %55
  %57 = sext i32 %56 to i64
  %58 = add nsw i64 %57, 16
  %59 = getelementptr inbounds nuw i8, ptr %0, i64 4
  %60 = load i8, ptr %59, align 1
  %61 = zext i8 %60 to i64
  %62 = shl nuw nsw i64 %61, 24
  %63 = getelementptr inbounds nuw i8, ptr %0, i64 5
  %64 = load i8, ptr %63, align 1
  %65 = zext i8 %64 to i64
  %66 = shl nuw nsw i64 %65, 16
  %67 = or disjoint i64 %66, %62
  %68 = getelementptr inbounds nuw i8, ptr %0, i64 6
  %69 = load i8, ptr %68, align 1
  %70 = zext i8 %69 to i64
  %71 = shl nuw nsw i64 %70, 8
  %72 = or disjoint i64 %67, %71
  %73 = getelementptr inbounds nuw i8, ptr %0, i64 7
  %74 = load i8, ptr %73, align 1
  %75 = zext i8 %74 to i64
  %76 = or disjoint i64 %72, %75
  %77 = icmp ugt i64 %58, %76
  br i1 %77, label %fdt_add_reservemap_entry.exit.thread, label %78

78:                                               ; preds = %fdt_sw_probe_memrsv_.exit.thread.i
  %79 = getelementptr inbounds i8, ptr %0, i64 %57
  %80 = trunc nuw i64 %58 to i32
  %rev.i.i.i = tail call noundef i32 @llvm.bswap.i32(i32 %80)
  tail call void @llvm.memset.p0.i64(ptr noundef nonnull align 8 dereferenceable(16) %79, i8 0, i64 16, i1 false)
  store i32 %rev.i.i.i, ptr %39, align 4
  %81 = load i8, ptr %59, align 1
  %82 = zext i8 %81 to i32
  %83 = shl nuw i32 %82, 24
  %84 = load i8, ptr %63, align 1
  %85 = zext i8 %84 to i32
  %86 = shl nuw nsw i32 %85, 16
  %87 = or disjoint i32 %86, %83
  %88 = load i8, ptr %68, align 1
  %89 = zext i8 %88 to i32
  %90 = shl nuw nsw i32 %89, 8
  %91 = or disjoint i32 %87, %90
  %92 = load i8, ptr %73, align 1
  %93 = zext i8 %92 to i32
  %94 = or disjoint i32 %91, %93
  %rev.i.i = tail call noundef i32 @llvm.bswap.i32(i32 %94)
  store i32 %rev.i.i, ptr %20, align 4
  br label %fdt_add_reservemap_entry.exit.thread

fdt_add_reservemap_entry.exit.thread:             ; preds = %19, %fdt_sw_probe_memrsv_.exit.thread.i, %fdt_sw_probe_memrsv_.exit.i, %78
  %.0 = phi i32 [ 0, %78 ], [ -7, %19 ], [ -3, %fdt_sw_probe_memrsv_.exit.thread.i ], [ %.0.i.i.i, %fdt_sw_probe_memrsv_.exit.i ]
  ret i32 %.0
}